target datalayout = "e-m:e-p270:32:32-p271:32:32-p272:64:64-i64:64-i128:128-f80:128-n8:16:32:64-S128"
target triple = "x86_64-pc-linux-gnu"

%struct._priv_exr_context_t = type { i8, i8, i8, i8, i8, i8, i8, i8, %struct.exr_attr_string_t, %struct.exr_attr_string_t, ptr, ptr, ptr, ptr, ptr, ptr, ptr, ptr, i32, i32, i32, i32, i32, float, ptr, ptr, ptr, i64, ptr, ptr, i64, i32, i32, i32, i32, %struct._priv_exr_part_t, ptr, ptr, %struct.exr_attribute_list, %union.pthread_mutex_t, i8, i8, [2 x i8], i32 }
%struct.exr_attr_string_t = type { i32, i32, ptr }
%struct._priv_exr_part_t = type { i32, i32, %struct.exr_attribute_list, ptr, ptr, ptr, ptr, ptr, ptr, ptr, ptr, ptr, ptr, ptr, ptr, ptr, ptr, %struct.exr_attr_box2i_t, %struct.exr_attr_box2i_t, i32, i32, i32, float, i32, i32, ptr, ptr, ptr, ptr, i64, i16, i16, i32, i64, i64 }
%struct.exr_attr_box2i_t = type { %struct.exr_attr_v2i_t, %struct.exr_attr_v2i_t }
%struct.exr_attr_v2i_t = type { i32, i32 }
%struct.exr_attribute_list = type { i32, i32, ptr, ptr }
%union.pthread_mutex_t = type { %struct.__pthread_mutex_s }
%struct.__pthread_mutex_s = type { i32, i32, i32, i32, i32, i16, i16, %struct.__pthread_internal_list }
%struct.__pthread_internal_list = type { ptr, ptr }

@.str.4 = private unnamed_addr constant [37 x i8] c"Compression technique 0x%02X invalid\00", align 1
@.str.7 = private unnamed_addr constant [50 x i8] c"no compression set but still trying to decompress\00", align 1

; Function Attrs: nounwind uwtable
define internal i32 @decompress_data(ptr noundef %0, i32 noundef %1, ptr noundef %2, ptr noundef %3, i64 noundef %4, ptr noundef %5, i64 noundef %6) #0 {
  %8 = alloca i32, align 4
  %9 = alloca ptr, align 8
  %10 = alloca i32, align 4
  %11 = alloca ptr, align 8
  %12 = alloca ptr, align 8
  %13 = alloca i64, align 8
  %14 = alloca ptr, align 8
  %15 = alloca i64, align 8
  %16 = alloca i32, align 4
  %17 = alloca i32, align 4
  store ptr %0, ptr %9, align 8, !tbaa !7
  store i32 %1, ptr %10, align 4, !tbaa !10
  store ptr %2, ptr %11, align 8, !tbaa !56
  store ptr %3, ptr %12, align 8, !tbaa !12
  store i64 %4, ptr %13, align 8, !tbaa !3
  store ptr %5, ptr %14, align 8, !tbaa !12
  store i64 %6, ptr %15, align 8, !tbaa !3
  call void @llvm.lifetime.start.p0(i64 4, ptr %16) #4
  %18 = load i64, ptr %13, align 8, !tbaa !3
  %19 = icmp eq i64 %18, 0
  br i1 %19, label %20, label %21

20:                                               ; preds = %7
  store i32 0, ptr %8, align 4
  store i32 1, ptr %17, align 4
  br label %108

21:                                               ; preds = %7
  %22 = load i64, ptr %13, align 8, !tbaa !3
  %23 = load i64, ptr %15, align 8, !tbaa !3
  %24 = icmp eq i64 %22, %23
  br i1 %24, label %25, label %34

25:                                               ; preds = %21
  %26 = load ptr, ptr %14, align 8, !tbaa !12
  %27 = load ptr, ptr %12, align 8, !tbaa !12
  %28 = icmp ne ptr %26, %27
  br i1 %28, label %29, label %33

29:                                               ; preds = %25
  %30 = load ptr, ptr %14, align 8, !tbaa !12
  %31 = load ptr, ptr %12, align 8, !tbaa !12
  %32 = load i64, ptr %15, align 8, !tbaa !3
  call void @llvm.memcpy.p0.p0.i64(ptr align 1 %30, ptr align 1 %31, i64 %32, i1 false)
  br label %33

33:                                               ; preds = %29, %25
  store i32 0, ptr %8, align 4
  store i32 1, ptr %17, align 4
  br label %108

34:                                               ; preds = %21
  %35 = load i32, ptr %10, align 4, !tbaa !10
  switch i32 %35, label %99 [
    i32 0, label %36
    i32 1, label %42
    i32 3, label %49
    i32 2, label %49
    i32 4, label %56
    i32 5, label %63
    i32 6, label %70
    i32 7, label %77
    i32 8, label %84
    i32 9, label %91
    i32 10, label %98
  ]

36:                                               ; preds = %34
  %37 = load ptr, ptr %9, align 8, !tbaa !7
  %38 = getelementptr inbounds nuw %struct._priv_exr_context_t, ptr %37, i32 0, i32 13
  %39 = load ptr, ptr %38, align 8, !tbaa !55
  %40 = load ptr, ptr %9, align 8, !tbaa !7
  %41 = call i32 %39(ptr noundef %40, i32 noundef 3, ptr noundef @.str.7)
  store i32 %41, ptr %8, align 4
  store i32 1, ptr %17, align 4
  br label %108

42:                                               ; preds = %34
  %43 = load ptr, ptr %11, align 8, !tbaa !56
  %44 = load ptr, ptr %12, align 8, !tbaa !12
  %45 = load i64, ptr %13, align 8, !tbaa !3
  %46 = load ptr, ptr %14, align 8, !tbaa !12
  %47 = load i64, ptr %15, align 8, !tbaa !3
  %48 = call i32 @internal_exr_undo_rle(ptr noundef %43, ptr noundef %44, i64 noundef %45, ptr noundef %46, i64 noundef %47)
  store i32 %48, ptr %16, align 4, !tbaa !10
  br label %106

49:                                               ; preds = %34, %34
  %50 = load ptr, ptr %11, align 8, !tbaa !56
  %51 = load ptr, ptr %12, align 8, !tbaa !12
  %52 = load i64, ptr %13, align 8, !tbaa !3
  %53 = load ptr, ptr %14, align 8, !tbaa !12
  %54 = load i64, ptr %15, align 8, !tbaa !3
  %55 = call i32 @internal_exr_undo_zip(ptr noundef %50, ptr noundef %51, i64 noundef %52, ptr noundef %53, i64 noundef %54)
  store i32 %55, ptr %16, align 4, !tbaa !10
  br label %106

56:                                               ; preds = %34
  %57 = load ptr, ptr %11, align 8, !tbaa !56
  %58 = load ptr, ptr %12, align 8, !tbaa !12
  %59 = load i64, ptr %13, align 8, !tbaa !3
  %60 = load ptr, ptr %14, align 8, !tbaa !12
  %61 = load i64, ptr %15, align 8, !tbaa !3
  %62 = call i32 @internal_exr_undo_piz(ptr noundef %57, ptr noundef %58, i64 noundef %59, ptr noundef %60, i64 noundef %61)
  store i32 %62, ptr %16, align 4, !tbaa !10
  br label %106

63:                                               ; preds = %34
  %64 = load ptr, ptr %11, align 8, !tbaa !56
  %65 = load ptr, ptr %12, align 8, !tbaa !12
  %66 = load i64, ptr %13, align 8, !tbaa !3
  %67 = load ptr, ptr %14, align 8, !tbaa !12
  %68 = load i64, ptr %15, align 8, !tbaa !3
  %69 = call i32 @internal_exr_undo_pxr24(ptr noundef %64, ptr noundef %65, i64 noundef %66, ptr noundef %67, i64 noundef %68)
  store i32 %69, ptr %16, align 4, !tbaa !10
  br label %106

70:                                               ; preds = %34
  %71 = load ptr, ptr %11, align 8, !tbaa !56
  %72 = load ptr, ptr %12, align 8, !tbaa !12
  %73 = load i64, ptr %13, align 8, !tbaa !3
  %74 = load ptr, ptr %14, align 8, !tbaa !12
  %75 = load i64, ptr %15, align 8, !tbaa !3
  %76 = call i32 @internal_exr_undo_b44(ptr noundef %71, ptr noundef %72, i64 noundef %73, ptr noundef %74, i64 noundef %75)
  store i32 %76, ptr %16, align 4, !tbaa !10
  br label %106

77:                                               ; preds = %34
  %78 = load ptr, ptr %11, align 8, !tbaa !56
  %79 = load ptr, ptr %12, align 8, !tbaa !12
  %80 = load i64, ptr %13, align 8, !tbaa !3
  %81 = load ptr, ptr %14, align 8, !tbaa !12
  %82 = load i64, ptr %15, align 8, !tbaa !3
  %83 = call i32 @internal_exr_undo_b44a(ptr noundef %78, ptr noundef %79, i64 noundef %80, ptr noundef %81, i64 noundef %82)
  store i32 %83, ptr %16, align 4, !tbaa !10
  br label %106

84:                                               ; preds = %34
  %85 = load ptr, ptr %11, align 8, !tbaa !56
  %86 = load ptr, ptr %12, align 8, !tbaa !12
  %87 = load i64, ptr %13, align 8, !tbaa !3
  %88 = load ptr, ptr %14, align 8, !tbaa !12
  %89 = load i64, ptr %15, align 8, !tbaa !3
  %90 = call i32 @internal_exr_undo_dwaa(ptr noundef %85, ptr noundef %86, i64 noundef %87, ptr noundef %88, i64 noundef %89)
  store i32 %90, ptr %16, align 4, !tbaa !10
  br label %106

91:                                               ; preds = %34
  %92 = load ptr, ptr %11, align 8, !tbaa !56
  %93 = load ptr, ptr %12, align 8, !tbaa !12
  %94 = load i64, ptr %13, align 8, !tbaa !3
  %95 = load ptr, ptr %14, align 8, !tbaa !12
  %96 = load i64, ptr %15, align 8, !tbaa !3
  %97 = call i32 @internal_exr_undo_dwab(ptr noundef %92, ptr noundef %93, i64 noundef %94, ptr noundef %95, i64 noundef %96)
  store i32 %97, ptr %16, align 4, !tbaa !10
  br label %106

98:                                               ; preds = %34
  br label %99

99:                                               ; preds = %34, %98
  %100 = load ptr, ptr %9, align 8, !tbaa !7
  %101 = getelementptr inbounds nuw %struct._priv_exr_context_t, ptr %100, i32 0, i32 14
  %102 = load ptr, ptr %101, align 8, !tbaa !41
  %103 = load ptr, ptr %9, align 8, !tbaa !7
  %104 = load i32, ptr %10, align 4, !tbaa !10
  %105 = call i32 (ptr, i32, ptr, ...) %102(ptr noundef %103, i32 noundef 3, ptr noundef @.str.4, i32 noundef %104)
  store i32 %105, ptr %8, align 4
  store i32 1, ptr %17, align 4
  br label %108

106:                                              ; preds = %91, %84, %77, %70, %63, %56, %49, %42
  %107 = load i32, ptr %16, align 4, !tbaa !10
  store i32 %107, ptr %8, align 4
  store i32 1, ptr %17, align 4
  br label %108

108:                                              ; preds = %106, %99, %36, %33, %20
  call void @llvm.lifetime.end.p0(i64 4, ptr %16) #4
  %109 = load i32, ptr %8, align 4
  ret i32 %109
}