; Function Attrs: nounwind uwtable
define internal fastcc i32 @decompress_data(ptr noundef nonnull %0, i32 noundef %1, ptr noundef nonnull %2, ptr noundef %3, i64 noundef %4, ptr noundef %5, i64 noundef %6) unnamed_addr #0 {
  %8 = icmp eq i64 %4, 0
  br i1 %8, label %38, label %9

9:                                                ; preds = %7
  %10 = icmp eq i64 %4, %6
  br i1 %10, label %11, label %13

11:                                               ; preds = %9
  %.not = icmp eq ptr %5, %3
  br i1 %.not, label %38, label %12

12:                                               ; preds = %11
  tail call void @llvm.memcpy.p0.p0.i64(ptr align 1 %5, ptr align 1 %3, i64 %4, i1 false)
  br label %38

13:                                               ; preds = %9
  switch i32 %1, label %34 [
    i32 0, label %14
    i32 1, label %18
    i32 3, label %20
    i32 2, label %20
    i32 4, label %22
    i32 5, label %24
    i32 6, label %26
    i32 7, label %28
    i32 8, label %30
    i32 9, label %32
  ]

14:                                               ; preds = %13
  %15 = getelementptr inbounds nuw i8, ptr %0, i64 64
  %16 = load ptr, ptr %15, align 8, !tbaa !45
  %17 = tail call i32 %16(ptr noundef nonnull %0, i32 noundef 3, ptr noundef nonnull @.str.7) #6
  br label %38

18:                                               ; preds = %13
  %19 = tail call i32 @internal_exr_undo_rle(ptr noundef nonnull %2, ptr noundef %3, i64 noundef %4, ptr noundef %5, i64 noundef %6) #6
  br label %38

20:                                               ; preds = %13, %13
  %21 = tail call i32 @internal_exr_undo_zip(ptr noundef nonnull %2, ptr noundef %3, i64 noundef %4, ptr noundef %5, i64 noundef %6) #6
  br label %38

22:                                               ; preds = %13
  %23 = tail call i32 @internal_exr_undo_piz(ptr noundef nonnull %2, ptr noundef %3, i64 noundef %4, ptr noundef %5, i64 noundef %6) #6
  br label %38

24:                                               ; preds = %13
  %25 = tail call i32 @internal_exr_undo_pxr24(ptr noundef nonnull %2, ptr noundef %3, i64 noundef %4, ptr noundef %5, i64 noundef %6) #6
  br label %38

26:                                               ; preds = %13
  %27 = tail call i32 @internal_exr_undo_b44(ptr noundef nonnull %2, ptr noundef %3, i64 noundef %4, ptr noundef %5, i64 noundef %6) #6
  br label %38

28:                                               ; preds = %13
  %29 = tail call i32 @internal_exr_undo_b44a(ptr noundef nonnull %2, ptr noundef %3, i64 noundef %4, ptr noundef %5, i64 noundef %6) #6
  br label %38

30:                                               ; preds = %13
  %31 = tail call i32 @internal_exr_undo_dwaa(ptr noundef nonnull %2, ptr noundef %3, i64 noundef %4, ptr noundef %5, i64 noundef %6) #6
  br label %38

32:                                               ; preds = %13
  %33 = tail call i32 @internal_exr_undo_dwab(ptr noundef nonnull %2, ptr noundef %3, i64 noundef %4, ptr noundef %5, i64 noundef %6) #6
  br label %38

34:                                               ; preds = %13
  %35 = getelementptr inbounds nuw i8, ptr %0, i64 72
  %36 = load ptr, ptr %35, align 8, !tbaa !31
  %37 = tail call i32 (ptr, i32, ptr, ...) %36(ptr noundef nonnull %0, i32 noundef 3, ptr noundef nonnull @.str.4, i32 noundef %1) #6
  br label %38

38:                                               ; preds = %18, %20, %22, %24, %26, %28, %30, %32, %11, %12, %7, %34, %14
  %.055 = phi i32 [ %37, %34 ], [ %17, %14 ], [ 0, %7 ], [ 0, %12 ], [ 0, %11 ], [ %33, %32 ], [ %31, %30 ], [ %29, %28 ], [ %27, %26 ], [ %25, %24 ], [ %23, %22 ], [ %21, %20 ], [ %19, %18 ]
  ret i32 %.055
}